; Function Attrs: mustprogress nofree norecurse nosync nounwind willreturn memory(argmem: readwrite) uwtable
define void @_Z4swapR13RichParameterS0_(ptr nocapture noundef nonnull align 8 dereferenceable(56) %0, ptr nocapture noundef nonnull align 8 dereferenceable(56) %1) local_unnamed_addr #14 {
  %3 = getelementptr inbounds i8, ptr %0, i64 8
  %4 = getelementptr inbounds i8, ptr %1, i64 8
  %5 = load ptr, ptr %3, align 8
  %6 = load ptr, ptr %4, align 8
  store ptr %6, ptr %3, align 8
  store ptr %5, ptr %4, align 8
  %7 = getelementptr inbounds i8, ptr %0, i64 16
  %8 = getelementptr inbounds i8, ptr %1, i64 16
  %9 = load ptr, ptr %7, align 8
  %10 = load ptr, ptr %8, align 8
  store ptr %10, ptr %7, align 8
  store ptr %9, ptr %8, align 8
  %11 = getelementptr inbounds i8, ptr %0, i64 24
  %12 = getelementptr inbounds i8, ptr %1, i64 24
  %13 = load ptr, ptr %11, align 8
  %14 = load ptr, ptr %12, align 8
  store ptr %14, ptr %11, align 8
  store ptr %13, ptr %12, align 8
  %15 = getelementptr inbounds i8, ptr %0, i64 32
  %16 = getelementptr inbounds i8, ptr %1, i64 32
  %17 = load ptr, ptr %15, align 8
  %18 = load ptr, ptr %16, align 8
  store ptr %18, ptr %15, align 8
  store ptr %17, ptr %16, align 8
  %19 = getelementptr inbounds i8, ptr %0, i64 40
  %20 = getelementptr inbounds i8, ptr %1, i64 40
  %21 = load i8, ptr %19, align 8
  %22 = and i8 %21, 1
  %23 = load i8, ptr %20, align 8
  %24 = and i8 %23, 1
  store i8 %24, ptr %19, align 8
  store i8 %22, ptr %20, align 8
  %25 = getelementptr inbounds i8, ptr %0, i64 41
  %26 = getelementptr inbounds i8, ptr %1, i64 41
  %27 = load i8, ptr %25, align 1
  %28 = and i8 %27, 1
  %29 = load i8, ptr %26, align 1
  %30 = and i8 %29, 1
  store i8 %30, ptr %25, align 1
  store i8 %28, ptr %26, align 1
  %31 = getelementptr inbounds i8, ptr %0, i64 48
  %32 = getelementptr inbounds i8, ptr %1, i64 48
  %33 = load ptr, ptr %31, align 8
  %34 = load ptr, ptr %32, align 8
  store ptr %34, ptr %31, align 8
  store ptr %33, ptr %32, align 8
  ret void
}